; Function Attrs: mustprogress nounwind uwtable
define void @_ZN22AmbientOcclusionPluginD0Ev(ptr noundef nonnull align 8 dereferenceable(185) %0) unnamed_addr #4 align 2 {
  tail call void @_ZN22AmbientOcclusionPluginD2Ev(ptr noundef nonnull align 8 dereferenceable(185) %0, ptr noundef nonnull @_ZTT22AmbientOcclusionPlugin) #26
  %2 = getelementptr inbounds i8, ptr %0, i64 192
  store ptr getelementptr inbounds ({ [7 x ptr] }, ptr @_ZTV13MeshLabPlugin, i64 0, i32 0, i64 2), ptr %2, align 8
  %3 = getelementptr inbounds i8, ptr %0, i64 208
  tail call void @_ZN9QFileInfoD1Ev(ptr noundef nonnull align 8 dereferenceable(8) %3) #26
  tail call void @_ZdlPv(ptr noundef nonnull %0) #25
  ret void
}